target datalayout = "e-m:e-p270:32:32-p271:32:32-p272:64:64-i64:64-i128:128-f80:128-n8:16:32:64-S128"
target triple = "x86_64-pc-linux-gnu"

%struct.io_init_msg_t = type { i16, ptr, i32, i32, i32 }

@.str.3 = private unnamed_addr constant [11 x i8] c"Leaving %s\00", align 1
@.str.4 = private unnamed_addr constant [30 x i8] c"Entering io_init_msg_validate\00", align 1
@.str.5 = private unnamed_addr constant [20 x i8] c"  msg->version = %x\00", align 1
@.str.6 = private unnamed_addr constant [19 x i8] c"  msg->nodeid = %u\00", align 1
@.str.7 = private unnamed_addr constant [31 x i8] c"Invalid IO init header version\00", align 1
@.str.8 = private unnamed_addr constant [33 x i8] c"Invalid IO init header signature\00", align 1
@__func__.io_init_msg_validate = private unnamed_addr constant [21 x i8] c"io_init_msg_validate\00", align 1

; Function Attrs: nounwind uwtable
define dso_local i32 @io_init_msg_validate(ptr noundef %0, ptr noundef %1) #0 {
  %3 = alloca i32, align 4
  %4 = alloca ptr, align 8
  %5 = alloca ptr, align 8
  store ptr %0, ptr %4, align 8
  store ptr %1, ptr %5, align 8
  br label %6

6:                                                ; preds = %2
  br label %7

7:                                                ; preds = %6
  %8 = call i32 @get_log_level()
  %9 = icmp sge i32 %8, 6
  br i1 %9, label %10, label %11

10:                                               ; preds = %7
  call void (i32, ptr, ...) @log_var(i32 noundef 6, ptr noundef @.str.4)
  br label %11

11:                                               ; preds = %10, %7
  br label %12

12:                                               ; preds = %11
  br label %13

13:                                               ; preds = %12
  br label %14

14:                                               ; preds = %13
  br label %15

15:                                               ; preds = %14
  %16 = call i32 @get_log_level()
  %17 = icmp sge i32 %16, 7
  br i1 %17, label %18, label %23

18:                                               ; preds = %15
  %19 = load ptr, ptr %4, align 8
  %20 = getelementptr inbounds nuw %struct.io_init_msg_t, ptr %19, i32 0, i32 0
  %21 = load i16, ptr %20, align 8
  %22 = zext i16 %21 to i32
  call void (i32, ptr, ...) @log_var(i32 noundef 7, ptr noundef @.str.5, i32 noundef %22)
  br label %23

23:                                               ; preds = %18, %15
  br label %24

24:                                               ; preds = %23
  br label %25

25:                                               ; preds = %24
  br label %26

26:                                               ; preds = %25
  br label %27

27:                                               ; preds = %26
  %28 = call i32 @get_log_level()
  %29 = icmp sge i32 %28, 7
  br i1 %29, label %30, label %34

30:                                               ; preds = %27
  %31 = load ptr, ptr %4, align 8
  %32 = getelementptr inbounds nuw %struct.io_init_msg_t, ptr %31, i32 0, i32 2
  %33 = load i32, ptr %32, align 8
  call void (i32, ptr, ...) @log_var(i32 noundef 7, ptr noundef @.str.6, i32 noundef %33)
  br label %34

34:                                               ; preds = %30, %27
  br label %35

35:                                               ; preds = %34
  br label %36

36:                                               ; preds = %35
  %37 = load ptr, ptr %4, align 8
  %38 = getelementptr inbounds nuw %struct.io_init_msg_t, ptr %37, i32 0, i32 0
  %39 = load i16, ptr %38, align 8
  %40 = zext i16 %39 to i32
  %41 = icmp slt i32 %40, 10240
  br i1 %41, label %42, label %44

42:                                               ; preds = %36
  %43 = call i32 (ptr, ...) @error(ptr noundef @.str.7)
  store i32 -1, ptr %3, align 4
  br label %62

44:                                               ; preds = %36
  %45 = load ptr, ptr %4, align 8
  %46 = getelementptr inbounds nuw %struct.io_init_msg_t, ptr %45, i32 0, i32 1
  %47 = load ptr, ptr %46, align 8
  %48 = load ptr, ptr %5, align 8
  %49 = call i32 @xstrcmp(ptr noundef %47, ptr noundef %48)
  %50 = icmp ne i32 %49, 0
  br i1 %50, label %51, label %53

51:                                               ; preds = %44
  %52 = call i32 (ptr, ...) @error(ptr noundef @.str.8)
  store i32 -1, ptr %3, align 4
  br label %62

53:                                               ; preds = %44
  br label %54

54:                                               ; preds = %53
  br label %55

55:                                               ; preds = %54
  %56 = call i32 @get_log_level()
  %57 = icmp sge i32 %56, 6
  br i1 %57, label %58, label %59

58:                                               ; preds = %55
  call void (i32, ptr, ...) @log_var(i32 noundef 6, ptr noundef @.str.3, ptr noundef @__func__.io_init_msg_validate)
  br label %59

59:                                               ; preds = %58, %55
  br label %60

60:                                               ; preds = %59
  br label %61

61:                                               ; preds = %60
  store i32 0, ptr %3, align 4
  br label %62

62:                                               ; preds = %61, %51, %42
  %63 = load i32, ptr %3, align 4
  ret i32 %63
}