; Function Attrs: nounwind uwtable
define dso_local range(i32 -1, 1) i32 @io_init_msg_validate(ptr noundef readonly captures(none) %0, ptr noundef %1) local_unnamed_addr #0 {
  %3 = tail call i32 @get_log_level() #7
  %4 = icmp sgt i32 %3, 5
  br i1 %4, label %5, label %6

5:                                                ; preds = %2
  tail call void (i32, ptr, ...) @log_var(i32 noundef 6, ptr noundef nonnull @.str.4) #7
  br label %6

6:                                                ; preds = %5, %2
  %7 = tail call i32 @get_log_level() #7
  %8 = icmp sgt i32 %7, 6
  br i1 %8, label %9, label %12

9:                                                ; preds = %6
  %10 = load i16, ptr %0, align 8
  %11 = zext i16 %10 to i32
  tail call void (i32, ptr, ...) @log_var(i32 noundef 7, ptr noundef nonnull @.str.5, i32 noundef %11) #7
  br label %12

12:                                               ; preds = %9, %6
  %13 = tail call i32 @get_log_level() #7
  %14 = icmp sgt i32 %13, 6
  br i1 %14, label %15, label %18

15:                                               ; preds = %12
  %16 = getelementptr inbounds nuw i8, ptr %0, i64 16
  %17 = load i32, ptr %16, align 8
  tail call void (i32, ptr, ...) @log_var(i32 noundef 7, ptr noundef nonnull @.str.6, i32 noundef %17) #7
  br label %18

18:                                               ; preds = %15, %12
  %19 = load i16, ptr %0, align 8
  %20 = icmp ult i16 %19, 10240
  br i1 %20, label %21, label %23

21:                                               ; preds = %18
  %22 = tail call i32 (ptr, ...) @error(ptr noundef nonnull @.str.7) #7
  br label %33

23:                                               ; preds = %18
  %24 = getelementptr inbounds nuw i8, ptr %0, i64 8
  %25 = load ptr, ptr %24, align 8
  %26 = tail call i32 @xstrcmp(ptr noundef %25, ptr noundef %1) #7
  %.not = icmp eq i32 %26, 0
  br i1 %.not, label %29, label %27

27:                                               ; preds = %23
  %28 = tail call i32 (ptr, ...) @error(ptr noundef nonnull @.str.8) #7
  br label %33

29:                                               ; preds = %23
  %30 = tail call i32 @get_log_level() #7
  %31 = icmp sgt i32 %30, 5
  br i1 %31, label %32, label %33

32:                                               ; preds = %29
  tail call void (i32, ptr, ...) @log_var(i32 noundef 6, ptr noundef nonnull @.str.3, ptr noundef nonnull @__func__.io_init_msg_validate) #7
  br label %33

33:                                               ; preds = %29, %32, %27, %21
  %.0 = phi i32 [ -1, %21 ], [ -1, %27 ], [ 0, %32 ], [ 0, %29 ]
  ret i32 %.0
}